target datalayout = "e-m:e-p270:32:32-p271:32:32-p272:64:64-i64:64-i128:128-f80:128-n8:16:32:64-S128"
target triple = "x86_64-unknown-linux-gnu"

%struct.b2Vec2 = type { float, float }
%struct.b2JointUserData = type { i64 }
%class.b2PrismaticJoint = type <{ %class.b2Joint, %struct.b2Vec2, %struct.b2Vec2, %struct.b2Vec2, %struct.b2Vec2, float, %struct.b2Vec2, float, float, float, float, float, float, float, i8, i8, [2 x i8], i32, i32, %struct.b2Vec2, %struct.b2Vec2, float, float, float, float, %struct.b2Vec2, %struct.b2Vec2, float, float, float, float, %struct.b2Mat22, float, float, [4 x i8] }>
%class.b2Joint = type { ptr, i32, ptr, ptr, %struct.b2JointEdge, %struct.b2JointEdge, ptr, ptr, i32, i8, i8, %struct.b2JointUserData }
%struct.b2JointEdge = type { ptr, ptr, ptr, ptr }
%struct.b2Mat22 = type { %struct.b2Vec2, %struct.b2Vec2 }

; Function Attrs: mustprogress nounwind uwtable
define linkonce_odr hidden void @_ZN6b2Vec2C2Eff(ptr noundef nonnull align 4 dereferenceable(8) %this, float noundef %xIn, float noundef %yIn) unnamed_addr #2 comdat align 2 {
entry:
  %this.addr = alloca ptr, align 8
  %xIn.addr = alloca float, align 4
  %yIn.addr = alloca float, align 4
  store ptr %this, ptr %this.addr, align 8
  store float %xIn, ptr %xIn.addr, align 4
  store float %yIn, ptr %yIn.addr, align 4
  %this1 = load ptr, ptr %this.addr, align 8
  %x = getelementptr inbounds %struct.b2Vec2, ptr %this1, i32 0, i32 0
  %0 = load float, ptr %xIn.addr, align 4
  store float %0, ptr %x, align 4
  %y = getelementptr inbounds %struct.b2Vec2, ptr %this1, i32 0, i32 1
  %1 = load float, ptr %yIn.addr, align 4
  store float %1, ptr %y, align 4
  ret void
}

; Function Attrs: mustprogress uwtable
define linkonce_odr hidden <2 x float> @_ZplRK6b2Vec2S1_(ptr noundef nonnull align 4 dereferenceable(8) %a, ptr noundef nonnull align 4 dereferenceable(8) %b) #0 comdat {
entry:
  %retval = alloca %struct.b2Vec2, align 4
  %a.addr = alloca ptr, align 8
  %b.addr = alloca ptr, align 8
  store ptr %a, ptr %a.addr, align 8
  store ptr %b, ptr %b.addr, align 8
  %0 = load ptr, ptr %a.addr, align 8
  %x = getelementptr inbounds %struct.b2Vec2, ptr %0, i32 0, i32 0
  %1 = load float, ptr %x, align 4
  %2 = load ptr, ptr %b.addr, align 8
  %x1 = getelementptr inbounds %struct.b2Vec2, ptr %2, i32 0, i32 0
  %3 = load float, ptr %x1, align 4
  %add = fadd float %1, %3
  %4 = load ptr, ptr %a.addr, align 8
  %y = getelementptr inbounds %struct.b2Vec2, ptr %4, i32 0, i32 1
  %5 = load float, ptr %y, align 4
  %6 = load ptr, ptr %b.addr, align 8
  %y2 = getelementptr inbounds %struct.b2Vec2, ptr %6, i32 0, i32 1
  %7 = load float, ptr %y2, align 4
  %add3 = fadd float %5, %7
  call void @_ZN6b2Vec2C2Eff(ptr noundef nonnull align 4 dereferenceable(8) %retval, float noundef %add, float noundef %add3)
  %8 = load <2 x float>, ptr %retval, align 4
  ret <2 x float> %8
}

; Function Attrs: mustprogress uwtable
define linkonce_odr hidden <2 x float> @_ZmlfRK6b2Vec2(float noundef %s, ptr noundef nonnull align 4 dereferenceable(8) %a) #0 comdat {
entry:
  %retval = alloca %struct.b2Vec2, align 4
  %s.addr = alloca float, align 4
  %a.addr = alloca ptr, align 8
  store float %s, ptr %s.addr, align 4
  store ptr %a, ptr %a.addr, align 8
  %0 = load float, ptr %s.addr, align 4
  %1 = load ptr, ptr %a.addr, align 8
  %x = getelementptr inbounds %struct.b2Vec2, ptr %1, i32 0, i32 0
  %2 = load float, ptr %x, align 4
  %mul = fmul float %0, %2
  %3 = load float, ptr %s.addr, align 4
  %4 = load ptr, ptr %a.addr, align 8
  %y = getelementptr inbounds %struct.b2Vec2, ptr %4, i32 0, i32 1
  %5 = load float, ptr %y, align 4
  %mul1 = fmul float %3, %5
  call void @_ZN6b2Vec2C2Eff(ptr noundef nonnull align 4 dereferenceable(8) %retval, float noundef %mul, float noundef %mul1)
  %6 = load <2 x float>, ptr %retval, align 4
  ret <2 x float> %6
}

; Function Attrs: mustprogress uwtable
define <2 x float> @_ZNK16b2PrismaticJoint16GetReactionForceEf(ptr noundef nonnull align 8 dereferenceable(300) %this, float noundef %inv_dt) unnamed_addr #0 align 2 {
entry:
  %retval = alloca %struct.b2Vec2, align 4
  %this.addr = alloca ptr, align 8
  %inv_dt.addr = alloca float, align 4
  %ref.tmp = alloca %struct.b2Vec2, align 4
  %ref.tmp2 = alloca %struct.b2Vec2, align 4
  %ref.tmp3 = alloca %struct.b2Vec2, align 4
  store ptr %this, ptr %this.addr, align 8
  store float %inv_dt, ptr %inv_dt.addr, align 4
  %this1 = load ptr, ptr %this.addr, align 8
  %0 = load float, ptr %inv_dt.addr, align 4
  %m_impulse = getelementptr inbounds %class.b2PrismaticJoint, ptr %this1, i32 0, i32 6
  %x = getelementptr inbounds %struct.b2Vec2, ptr %m_impulse, i32 0, i32 0
  %1 = load float, ptr %x, align 4
  %m_perp = getelementptr inbounds %class.b2PrismaticJoint, ptr %this1, i32 0, i32 26
  %call = call <2 x float> @_ZmlfRK6b2Vec2(float noundef %1, ptr noundef nonnull align 4 dereferenceable(8) %m_perp)
  store <2 x float> %call, ptr %ref.tmp2, align 4
  %m_motorImpulse = getelementptr inbounds %class.b2PrismaticJoint, ptr %this1, i32 0, i32 7
  %2 = load float, ptr %m_motorImpulse, align 4
  %m_lowerImpulse = getelementptr inbounds %class.b2PrismaticJoint, ptr %this1, i32 0, i32 8
  %3 = load float, ptr %m_lowerImpulse, align 8
  %add = fadd float %2, %3
  %m_upperImpulse = getelementptr inbounds %class.b2PrismaticJoint, ptr %this1, i32 0, i32 9
  %4 = load float, ptr %m_upperImpulse, align 4
  %sub = fsub float %add, %4
  %m_axis = getelementptr inbounds %class.b2PrismaticJoint, ptr %this1, i32 0, i32 25
  %call4 = call <2 x float> @_ZmlfRK6b2Vec2(float noundef %sub, ptr noundef nonnull align 4 dereferenceable(8) %m_axis)
  store <2 x float> %call4, ptr %ref.tmp3, align 4
  %call5 = call <2 x float> @_ZplRK6b2Vec2S1_(ptr noundef nonnull align 4 dereferenceable(8) %ref.tmp2, ptr noundef nonnull align 4 dereferenceable(8) %ref.tmp3)
  store <2 x float> %call5, ptr %ref.tmp, align 4
  %call6 = call <2 x float> @_ZmlfRK6b2Vec2(float noundef %0, ptr noundef nonnull align 4 dereferenceable(8) %ref.tmp)
  store <2 x float> %call6, ptr %retval, align 4
  %5 = load <2 x float>, ptr %retval, align 4
  ret <2 x float> %5
}