; Function Attrs: mustprogress nofree norecurse nosync nounwind willreturn memory(argmem: read) uwtable
define <2 x float> @_ZNK16b2PrismaticJoint16GetReactionForceEf(ptr nocapture noundef nonnull readonly align 8 dereferenceable(300) %this, float noundef %inv_dt) unnamed_addr #7 align 2 {
entry:
  %m_impulse = getelementptr inbounds i8, ptr %this, i64 164
  %0 = load <4 x float>, ptr %m_impulse, align 4
  %m_perp = getelementptr inbounds i8, ptr %this, i64 252
  %m_motorImpulse = getelementptr inbounds i8, ptr %this, i64 172
  %1 = load float, ptr %m_motorImpulse, align 4
  %m_lowerImpulse = getelementptr inbounds i8, ptr %this, i64 176
  %2 = load float, ptr %m_lowerImpulse, align 8
  %add = fadd float %1, %2
  %m_upperImpulse = getelementptr inbounds i8, ptr %this, i64 180
  %3 = load float, ptr %m_upperImpulse, align 4
  %sub = fsub float %add, %3
  %m_axis = getelementptr inbounds i8, ptr %this, i64 244
  %4 = load <2 x float>, ptr %m_perp, align 4
  %5 = shufflevector <4 x float> %0, <4 x float> poison, <2 x i32> zeroinitializer
  %6 = fmul <2 x float> %5, %4
  %7 = load <2 x float>, ptr %m_axis, align 4
  %8 = insertelement <2 x float> poison, float %sub, i64 0
  %9 = shufflevector <2 x float> %8, <2 x float> poison, <2 x i32> zeroinitializer
  %10 = fmul <2 x float> %7, %9
  %11 = fadd <2 x float> %6, %10
  %12 = insertelement <2 x float> poison, float %inv_dt, i64 0
  %13 = shufflevector <2 x float> %12, <2 x float> poison, <2 x i32> zeroinitializer
  %14 = fmul <2 x float> %11, %13
  ret <2 x float> %14
}